; Function Attrs: mustprogress nofree norecurse nosync nounwind willreturn memory(argmem: write) uwtable
define dso_local void @_ZN4Luau12TypeMismatchC2EPKNS_4TypeES3_NS0_7ContextE(ptr noundef nonnull align 8 dereferenceable(72) initializes((0, 20)) %0, ptr noundef %1, ptr noundef %2, i32 noundef %3) unnamed_addr #4 align 2 personality ptr @__gxx_personality_v0 {
  store ptr %1, ptr %0, align 8, !tbaa !34
  %5 = getelementptr inbounds nuw i8, ptr %0, i64 8
  store ptr %2, ptr %5, align 8, !tbaa !43
  %6 = getelementptr inbounds nuw i8, ptr %0, i64 16
  store i32 %3, ptr %6, align 8, !tbaa !44
  %7 = getelementptr inbounds nuw i8, ptr %0, i64 24
  %8 = getelementptr inbounds nuw i8, ptr %0, i64 40
  store ptr %8, ptr %7, align 8, !tbaa !45
  %9 = getelementptr inbounds nuw i8, ptr %0, i64 32
  store i64 0, ptr %9, align 8, !tbaa !23
  store i8 0, ptr %8, align 8, !tbaa !24
  %10 = getelementptr inbounds nuw i8, ptr %0, i64 56
  tail call void @llvm.memset.p0.i64(ptr noundef nonnull align 8 dereferenceable(16) %10, i8 0, i64 16, i1 false)
  ret void
}